; Function Attrs: mustprogress uwtable
define void @_ZN4LIEF5MachO4Hash5visitERKNS0_11MainCommandE(ptr noundef nonnull align 8 dereferenceable(64) %0, ptr noundef nonnull align 8 dereferenceable(72) %1) unnamed_addr #3 align 2 {
  %3 = load ptr, ptr %0, align 8
  %4 = getelementptr inbounds i8, ptr %3, i64 872
  %5 = load ptr, ptr %4, align 8
  tail call void %5(ptr noundef nonnull align 8 dereferenceable(64) %0, ptr noundef nonnull align 8 dereferenceable(56) %1)
  %6 = tail call noundef i64 @_ZNK4LIEF5MachO11MainCommand10entrypointEv(ptr noundef nonnull align 8 dereferenceable(72) %1)
  %7 = load ptr, ptr %0, align 8
  %8 = getelementptr inbounds i8, ptr %7, i64 1328
  %9 = load ptr, ptr %8, align 8
  %10 = tail call noundef nonnull align 8 dereferenceable(64) ptr %9(ptr noundef nonnull align 8 dereferenceable(64) %0, i64 noundef %6)
  %11 = tail call noundef i64 @_ZNK4LIEF5MachO11MainCommand10stack_sizeEv(ptr noundef nonnull align 8 dereferenceable(72) %1)
  %12 = load ptr, ptr %0, align 8
  %13 = getelementptr inbounds i8, ptr %12, i64 1328
  %14 = load ptr, ptr %13, align 8
  %15 = tail call noundef nonnull align 8 dereferenceable(64) ptr %14(ptr noundef nonnull align 8 dereferenceable(64) %0, i64 noundef %11)
  ret void
}